; ModuleID = '40/2879.c'
source_filename = "40/2879.c"
target datalayout = "e-m:e-p270:32:32-p271:32:32-p272:64:64-i64:64-f80:128-n8:16:32:64-S128"
target triple = "x86_64-pc-linux-gnu"

@.str = private unnamed_addr constant [16 x i8] c"%lf%lf%lf%lf%lf\00", align 1
@.str.1 = private unnamed_addr constant [6 x i8] c"%.4lf\00", align 1
@.str.2 = private unnamed_addr constant [14 x i8] c"Invalid input\00", align 1

; Function Attrs: noinline nounwind uwtable
define dso_local i32 @main() #0 {
  %1 = alloca i32, align 4
  %2 = alloca double, align 8
  %3 = alloca double, align 8
  %4 = alloca double, align 8
  %5 = alloca double, align 8
  %6 = alloca double, align 8
  %7 = alloca double, align 8
  %8 = alloca double, align 8
  store i32 0, i32* %1, align 4
  %9 = call i32 (i8*, ...) @__isoc99_scanf(i8* getelementptr inbounds ([16 x i8], [16 x i8]* @.str, i64 0, i64 0), double* %2, double* %3, double* %4, double* %5, double* %6)
  %10 = load double, double* %6, align 8
  %11 = fcmp ogt double %10, 0.000000e+00
  br i1 %11, label %12, label %33

12:                                               ; preds = %0
  %13 = load double, double* %6, align 8
  %14 = fcmp olt double %13, 3.600000e+02
  br i1 %14, label %15, label %33

15:                                               ; preds = %12
  %16 = load double, double* %6, align 8
  %17 = fmul double 1.000000e+02, %16
  %18 = fdiv double %17, 3.600000e+02
  store double %18, double* %7, align 8
  %19 = load double, double* %2, align 8
  %20 = load double, double* %3, align 8
  %21 = load double, double* %4, align 8
  %22 = load double, double* %5, align 8
  %23 = load double, double* %7, align 8
  %24 = call double @area1(double %19, double %20, double %21, double %22, double %23)
  store double %24, double* %8, align 8
  %25 = load double, double* %8, align 8
  %26 = fcmp une double %25, -1.000000e+00
  br i1 %26, label %27, label %30

27:                                               ; preds = %15
  %28 = load double, double* %8, align 8
  %29 = call i32 (i8*, ...) @printf(i8* getelementptr inbounds ([6 x i8], [6 x i8]* @.str.1, i64 0, i64 0), double %28)
  br label %32

30:                                               ; preds = %15
  %31 = call i32 (i8*, ...) @printf(i8* getelementptr inbounds ([14 x i8], [14 x i8]* @.str.2, i64 0, i64 0))
  br label %32

32:                                               ; preds = %30, %27
  br label %33

33:                                               ; preds = %32, %12, %0
  ret i32 0
}

declare dso_local i32 @__isoc99_scanf(i8*, ...) #1

; Function Attrs: noinline nounwind uwtable
define dso_local double @area1(double %0, double %1, double %2, double %3, double %4) #0 {
  %6 = alloca double, align 8
  %7 = alloca double, align 8
  %8 = alloca double, align 8
  %9 = alloca double, align 8
  %10 = alloca double, align 8
  %11 = alloca double, align 8
  %12 = alloca double, align 8
  store double %0, double* %6, align 8
  store double %1, double* %7, align 8
  store double %2, double* %8, align 8
  store double %3, double* %9, align 8
  store double %4, double* %10, align 8
  %13 = load double, double* %6, align 8
  %14 = load double, double* %7, align 8
  %15 = fadd double %13, %14
  %16 = load double, double* %8, align 8
  %17 = fadd double %15, %16
  %18 = load double, double* %9, align 8
  %19 = fadd double %17, %18
  %20 = fdiv double %19, 2.000000e+00
  store double %20, double* %11, align 8
  %21 = load double, double* %11, align 8
  %22 = load double, double* %6, align 8
  %23 = fsub double %21, %22
  %24 = load double, double* %11, align 8
  %25 = load double, double* %7, align 8
  %26 = fsub double %24, %25
  %27 = fmul double %23, %26
  %28 = load double, double* %11, align 8
  %29 = load double, double* %8, align 8
  %30 = fsub double %28, %29
  %31 = fmul double %27, %30
  %32 = load double, double* %11, align 8
  %33 = load double, double* %9, align 8
  %34 = fsub double %32, %33
  %35 = fmul double %31, %34
  %36 = load double, double* %6, align 8
  %37 = load double, double* %7, align 8
  %38 = fmul double %36, %37
  %39 = load double, double* %8, align 8
  %40 = fmul double %38, %39
  %41 = load double, double* %9, align 8
  %42 = fmul double %40, %41
  %43 = load double, double* %10, align 8
  %44 = call double @cos(double %43) #3
  %45 = fmul double %42, %44
  %46 = load double, double* %10, align 8
  %47 = call double @cos(double %46) #3
  %48 = fmul double %45, %47
  %49 = fsub double %35, %48
  %50 = call double @sqrt(double %49) #3
  store double %50, double* %12, align 8
  %51 = load double, double* %11, align 8
  %52 = load double, double* %6, align 8
  %53 = fsub double %51, %52
  %54 = load double, double* %11, align 8
  %55 = load double, double* %7, align 8
  %56 = fsub double %54, %55
  %57 = fmul double %53, %56
  %58 = load double, double* %11, align 8
  %59 = load double, double* %8, align 8
  %60 = fsub double %58, %59
  %61 = fmul double %57, %60
  %62 = load double, double* %11, align 8
  %63 = load double, double* %9, align 8
  %64 = fsub double %62, %63
  %65 = fmul double %61, %64
  %66 = load double, double* %6, align 8
  %67 = load double, double* %7, align 8
  %68 = fmul double %66, %67
  %69 = load double, double* %8, align 8
  %70 = fmul double %68, %69
  %71 = load double, double* %9, align 8
  %72 = fmul double %70, %71
  %73 = load double, double* %10, align 8
  %74 = call double @cos(double %73) #3
  %75 = fmul double %72, %74
  %76 = load double, double* %10, align 8
  %77 = call double @cos(double %76) #3
  %78 = fmul double %75, %77
  %79 = fsub double %65, %78
  %80 = fcmp olt double %79, 0.000000e+00
  br i1 %80, label %81, label %82

81:                                               ; preds = %5
  store double -1.000000e+00, double* %12, align 8
  br label %82

82:                                               ; preds = %81, %5
  %83 = load double, double* %12, align 8
  ret double %83
}

declare dso_local i32 @printf(i8*, ...) #1

; Function Attrs: nounwind
declare dso_local double @sqrt(double) #2

; Function Attrs: nounwind
declare dso_local double @cos(double) #2


!llvm.module.flags = !{!0}
!llvm.ident = !{!1}

!0 = !{i32 1, !"wchar_size", i32 4}
!1 = !{!"clang version 10.0.0-4ubuntu1 "}
